; Function Attrs: nounwind uwtable
define ptr @l___private_Lean_Elab_Print_0__Lean_Elab_Command_printAxiomLike(ptr noundef %0, ptr noundef %1, ptr noundef %2, ptr noundef %3, i8 noundef zeroext %4, ptr noundef %5, ptr noundef %6, ptr noundef %7) local_unnamed_addr #0 {
  %9 = icmp eq i8 %4, 0
  %..i = zext i1 %9 to i8
  %10 = tail call ptr @l___private_Lean_Elab_Print_0__Lean_Elab_Command_mkHeader(ptr noundef %0, ptr noundef %1, ptr noundef %2, ptr noundef %3, i8 noundef zeroext %..i, i8 noundef zeroext 1, ptr readnone poison, ptr noundef %6, ptr noundef %7)
  %11 = getelementptr inbounds nuw i8, ptr %10, i64 8
  %12 = load ptr, ptr %11, align 8, !tbaa !4
  %13 = ptrtoint ptr %12 to i64
  %14 = and i64 %13, 1
  %.not = icmp eq i64 %14, 0
  br i1 %.not, label %15, label %lean_inc.exit19

15:                                               ; preds = %8
  %.val.i = load i32, ptr %12, align 4, !tbaa !8
  %16 = icmp sgt i32 %.val.i, 0
  br i1 %16, label %17, label %19, !prof !13

17:                                               ; preds = %15
  %18 = add nuw i32 %.val.i, 1
  store i32 %18, ptr %12, align 4, !tbaa !8
  br label %lean_inc.exit19

19:                                               ; preds = %15
  %.not.i20 = icmp eq i32 %.val.i, 0
  br i1 %.not.i20, label %lean_inc.exit19, label %20

20:                                               ; preds = %19
  tail call void @lean_inc_ref_cold(ptr noundef nonnull %12) #5
  br label %lean_inc.exit19

lean_inc.exit19:                                  ; preds = %20, %19, %17, %8
  %21 = getelementptr inbounds nuw i8, ptr %10, i64 16
  %22 = load ptr, ptr %21, align 8, !tbaa !4
  %23 = ptrtoint ptr %22 to i64
  %24 = and i64 %23, 1
  %.not24 = icmp eq i64 %24, 0
  br i1 %.not24, label %25, label %lean_inc.exit

25:                                               ; preds = %lean_inc.exit19
  %.val.i21 = load i32, ptr %22, align 4, !tbaa !8
  %26 = icmp sgt i32 %.val.i21, 0
  br i1 %26, label %27, label %29, !prof !13

27:                                               ; preds = %25
  %28 = add nuw i32 %.val.i21, 1
  store i32 %28, ptr %22, align 4, !tbaa !8
  br label %lean_inc.exit

29:                                               ; preds = %25
  %.not.i22 = icmp eq i32 %.val.i21, 0
  br i1 %.not.i22, label %lean_inc.exit, label %30

30:                                               ; preds = %29
  tail call void @lean_inc_ref_cold(ptr noundef nonnull %22) #5
  br label %lean_inc.exit

lean_inc.exit:                                    ; preds = %30, %29, %27, %lean_inc.exit19
  %31 = ptrtoint ptr %10 to i64
  %32 = and i64 %31, 1
  %.not25 = icmp eq i64 %32, 0
  br i1 %.not25, label %33, label %lean_dec.exit

33:                                               ; preds = %lean_inc.exit
  %34 = load i32, ptr %10, align 4, !tbaa !8
  %35 = icmp sgt i32 %34, 1
  br i1 %35, label %36, label %38, !prof !13

36:                                               ; preds = %33
  %37 = add nsw i32 %34, -1
  store i32 %37, ptr %10, align 4, !tbaa !8
  br label %lean_dec.exit

38:                                               ; preds = %33
  %.not.i = icmp eq i32 %34, 0
  br i1 %.not.i, label %lean_dec.exit, label %39

39:                                               ; preds = %38
  tail call void @lean_dec_ref_cold(ptr noundef nonnull %10) #5
  br label %lean_dec.exit

lean_dec.exit:                                    ; preds = %39, %38, %36, %lean_inc.exit
  %40 = tail call ptr @l_Lean_log___at_Lean_Elab_Command_withLoggingExceptions___spec__4(ptr noundef %12, i8 noundef zeroext 0, ptr noundef %5, ptr noundef %6, ptr noundef %22) #5
  ret ptr %40
}